; Function Attrs: mustprogress nounwind uwtable
define hidden noundef i32 @_ZNK10TypeRawPtr4hashEv(ptr nocapture noundef nonnull readonly align 8 dereferenceable(56) %0) unnamed_addr #0 align 2 {
  %2 = getelementptr inbounds i8, ptr %0, i64 48
  %3 = load ptr, ptr %2, align 8
  %4 = getelementptr inbounds i8, ptr %0, i64 40
  %5 = load i32, ptr %4, align 8
  %6 = getelementptr inbounds i8, ptr %0, i64 36
  %7 = load i32, ptr %6, align 4
  %8 = getelementptr inbounds i8, ptr %0, i64 24
  %9 = load ptr, ptr %8, align 8
  %10 = icmp eq ptr %9, null
  br i1 %10, label %_ZNK7TypePtr4hashEv.exit, label %11

11:                                               ; preds = %1
  %12 = load ptr, ptr %9, align 8
  %13 = getelementptr inbounds i8, ptr %12, i64 80
  %14 = load ptr, ptr %13, align 8
  %15 = tail call noundef i32 %14(ptr noundef nonnull align 8 dereferenceable(44) %9) #17
  br label %_ZNK7TypePtr4hashEv.exit

_ZNK7TypePtr4hashEv.exit:                         ; preds = %1, %11
  %.0.i.i = phi i32 [ %15, %11 ], [ 0, %1 ]
  %16 = ptrtoint ptr %3 to i64
  %17 = trunc i64 %16 to i32
  %18 = add i32 %7, %5
  %19 = getelementptr inbounds i8, ptr %0, i64 32
  %20 = load i32, ptr %19, align 8
  %21 = add i32 %18, %17
  %22 = add i32 %21, %.0.i.i
  %23 = add i32 %22, %20
  ret i32 %23
}